; ModuleID = '19/603.c'
source_filename = "19/603.c"
target datalayout = "e-m:e-p270:32:32-p271:32:32-p272:64:64-i64:64-f80:128-n8:16:32:64-S128"
target triple = "x86_64-pc-linux-gnu"

@.str = private unnamed_addr constant [3 x i8] c"%s\00", align 1
@.str.1 = private unnamed_addr constant [4 x i8] c"%s \00", align 1

; Function Attrs: noinline nounwind uwtable
define dso_local i32 @main() #0 {
  %1 = alloca i32, align 4
  %2 = alloca [100 x [1000 x i8]], align 16
  %3 = alloca i32, align 4
  %4 = alloca i32, align 4
  %5 = alloca i32, align 4
  %6 = alloca i32, align 4
  %7 = alloca i32, align 4
  %8 = alloca [1000 x i8], align 16
  %9 = alloca [1000 x i8], align 16
  %10 = alloca [1000 x i8], align 16
  store i32 0, i32* %1, align 4
  store i32 0, i32* %5, align 4
  store i32 0, i32* %7, align 4
  %11 = getelementptr inbounds [1000 x i8], [1000 x i8]* %8, i64 0, i64 0
  %12 = call i32 (i8*, ...) bitcast (i32 (...)* @gets to i32 (i8*, ...)*)(i8* %11)
  %13 = getelementptr inbounds [1000 x i8], [1000 x i8]* %8, i64 0, i64 0
  %14 = call i64 @strlen(i8* %13) #4
  %15 = trunc i64 %14 to i32
  store i32 %15, i32* %4, align 4
  store i32 0, i32* %3, align 4
  br label %16

16:                                               ; preds = %50, %0
  %17 = load i32, i32* %3, align 4
  %18 = load i32, i32* %4, align 4
  %19 = icmp slt i32 %17, %18
  br i1 %19, label %20, label %53

20:                                               ; preds = %16
  %21 = load i32, i32* %3, align 4
  %22 = sext i32 %21 to i64
  %23 = getelementptr inbounds [1000 x i8], [1000 x i8]* %8, i64 0, i64 %22
  %24 = load i8, i8* %23, align 1
  %25 = sext i8 %24 to i32
  %26 = icmp ne i32 %25, 32
  br i1 %26, label %27, label %40

27:                                               ; preds = %20
  %28 = load i32, i32* %3, align 4
  %29 = sext i32 %28 to i64
  %30 = getelementptr inbounds [1000 x i8], [1000 x i8]* %8, i64 0, i64 %29
  %31 = load i8, i8* %30, align 1
  %32 = load i32, i32* %5, align 4
  %33 = sext i32 %32 to i64
  %34 = getelementptr inbounds [100 x [1000 x i8]], [100 x [1000 x i8]]* %2, i64 0, i64 %33
  %35 = load i32, i32* %7, align 4
  %36 = sext i32 %35 to i64
  %37 = getelementptr inbounds [1000 x i8], [1000 x i8]* %34, i64 0, i64 %36
  store i8 %31, i8* %37, align 1
  %38 = load i32, i32* %7, align 4
  %39 = add nsw i32 %38, 1
  store i32 %39, i32* %7, align 4
  br label %49

40:                                               ; preds = %20
  %41 = load i32, i32* %5, align 4
  %42 = sext i32 %41 to i64
  %43 = getelementptr inbounds [100 x [1000 x i8]], [100 x [1000 x i8]]* %2, i64 0, i64 %42
  %44 = load i32, i32* %7, align 4
  %45 = sext i32 %44 to i64
  %46 = getelementptr inbounds [1000 x i8], [1000 x i8]* %43, i64 0, i64 %45
  store i8 0, i8* %46, align 1
  %47 = load i32, i32* %5, align 4
  %48 = add nsw i32 %47, 1
  store i32 %48, i32* %5, align 4
  store i32 0, i32* %7, align 4
  br label %49

49:                                               ; preds = %40, %27
  br label %50

50:                                               ; preds = %49
  %51 = load i32, i32* %3, align 4
  %52 = add nsw i32 %51, 1
  store i32 %52, i32* %3, align 4
  br label %16

53:                                               ; preds = %16
  %54 = load i32, i32* %5, align 4
  %55 = sext i32 %54 to i64
  %56 = getelementptr inbounds [100 x [1000 x i8]], [100 x [1000 x i8]]* %2, i64 0, i64 %55
  %57 = load i32, i32* %7, align 4
  %58 = sext i32 %57 to i64
  %59 = getelementptr inbounds [1000 x i8], [1000 x i8]* %56, i64 0, i64 %58
  store i8 0, i8* %59, align 1
  %60 = load i32, i32* %5, align 4
  %61 = add nsw i32 %60, 1
  store i32 %61, i32* %5, align 4
  %62 = getelementptr inbounds [1000 x i8], [1000 x i8]* %9, i64 0, i64 0
  %63 = call i32 (i8*, ...) @__isoc99_scanf(i8* getelementptr inbounds ([3 x i8], [3 x i8]* @.str, i64 0, i64 0), i8* %62)
  %64 = getelementptr inbounds [1000 x i8], [1000 x i8]* %10, i64 0, i64 0
  %65 = call i32 (i8*, ...) @__isoc99_scanf(i8* getelementptr inbounds ([3 x i8], [3 x i8]* @.str, i64 0, i64 0), i8* %64)
  store i32 0, i32* %3, align 4
  br label %66

66:                                               ; preds = %86, %53
  %67 = load i32, i32* %3, align 4
  %68 = load i32, i32* %5, align 4
  %69 = icmp slt i32 %67, %68
  br i1 %69, label %70, label %89

70:                                               ; preds = %66
  %71 = load i32, i32* %3, align 4
  %72 = sext i32 %71 to i64
  %73 = getelementptr inbounds [100 x [1000 x i8]], [100 x [1000 x i8]]* %2, i64 0, i64 %72
  %74 = getelementptr inbounds [1000 x i8], [1000 x i8]* %73, i64 0, i64 0
  %75 = getelementptr inbounds [1000 x i8], [1000 x i8]* %9, i64 0, i64 0
  %76 = call i32 @strcmp(i8* %74, i8* %75) #4
  %77 = icmp eq i32 %76, 0
  br i1 %77, label %78, label %85

78:                                               ; preds = %70
  %79 = load i32, i32* %3, align 4
  %80 = sext i32 %79 to i64
  %81 = getelementptr inbounds [100 x [1000 x i8]], [100 x [1000 x i8]]* %2, i64 0, i64 %80
  %82 = getelementptr inbounds [1000 x i8], [1000 x i8]* %81, i64 0, i64 0
  %83 = getelementptr inbounds [1000 x i8], [1000 x i8]* %10, i64 0, i64 0
  %84 = call i8* @strcpy(i8* %82, i8* %83) #5
  br label %85

85:                                               ; preds = %78, %70
  br label %86

86:                                               ; preds = %85
  %87 = load i32, i32* %3, align 4
  %88 = add nsw i32 %87, 1
  store i32 %88, i32* %3, align 4
  br label %66

89:                                               ; preds = %66
  store i32 0, i32* %3, align 4
  br label %90

90:                                               ; preds = %112, %89
  %91 = load i32, i32* %3, align 4
  %92 = load i32, i32* %5, align 4
  %93 = icmp slt i32 %91, %92
  br i1 %93, label %94, label %115

94:                                               ; preds = %90
  %95 = load i32, i32* %3, align 4
  %96 = load i32, i32* %5, align 4
  %97 = sub nsw i32 %96, 1
  %98 = icmp eq i32 %95, %97
  br i1 %98, label %99, label %105

99:                                               ; preds = %94
  %100 = load i32, i32* %3, align 4
  %101 = sext i32 %100 to i64
  %102 = getelementptr inbounds [100 x [1000 x i8]], [100 x [1000 x i8]]* %2, i64 0, i64 %101
  %103 = getelementptr inbounds [1000 x i8], [1000 x i8]* %102, i64 0, i64 0
  %104 = call i32 (i8*, ...) @printf(i8* getelementptr inbounds ([3 x i8], [3 x i8]* @.str, i64 0, i64 0), i8* %103)
  br label %111

105:                                              ; preds = %94
  %106 = load i32, i32* %3, align 4
  %107 = sext i32 %106 to i64
  %108 = getelementptr inbounds [100 x [1000 x i8]], [100 x [1000 x i8]]* %2, i64 0, i64 %107
  %109 = getelementptr inbounds [1000 x i8], [1000 x i8]* %108, i64 0, i64 0
  %110 = call i32 (i8*, ...) @printf(i8* getelementptr inbounds ([4 x i8], [4 x i8]* @.str.1, i64 0, i64 0), i8* %109)
  br label %111

111:                                              ; preds = %105, %99
  br label %112

112:                                              ; preds = %111
  %113 = load i32, i32* %3, align 4
  %114 = add nsw i32 %113, 1
  store i32 %114, i32* %3, align 4
  br label %90

115:                                              ; preds = %90
  %116 = load i32, i32* %1, align 4
  ret i32 %116
}

declare dso_local i32 @gets(...) #1

; Function Attrs: nounwind readonly
declare dso_local i64 @strlen(i8*) #2

declare dso_local i32 @__isoc99_scanf(i8*, ...) #1

; Function Attrs: nounwind readonly
declare dso_local i32 @strcmp(i8*, i8*) #2

; Function Attrs: nounwind
declare dso_local i8* @strcpy(i8*, i8*) #3

declare dso_local i32 @printf(i8*, ...) #1


!llvm.module.flags = !{!0}
!llvm.ident = !{!1}

!0 = !{i32 1, !"wchar_size", i32 4}
!1 = !{!"clang version 10.0.0-4ubuntu1 "}
